; ModuleID = '28/174.c'
source_filename = "28/174.c"
target datalayout = "e-m:e-p270:32:32-p271:32:32-p272:64:64-i64:64-f80:128-n8:16:32:64-S128"
target triple = "x86_64-pc-linux-gnu"

@.str = private unnamed_addr constant [3 x i8] c"%d\00", align 1
@.str.1 = private unnamed_addr constant [2 x i8] c",\00", align 1

; Function Attrs: noinline nounwind uwtable
define dso_local void @main() #0 {
  %1 = alloca [4000 x i8], align 16
  %2 = alloca [800 x i8], align 16
  %3 = alloca i32, align 4
  %4 = alloca i32, align 4
  %5 = alloca i32, align 4
  %6 = bitcast [4000 x i8]* %1 to i8*
  call void @llvm.memset.p0i8.i64(i8* align 16 %6, i8 0, i64 4000, i1 false)
  store i32 0, i32* %3, align 4
  store i32 0, i32* %5, align 4
  %7 = getelementptr inbounds [4000 x i8], [4000 x i8]* %1, i64 0, i64 0
  %8 = call i32 (i8*, ...) bitcast (i32 (...)* @gets to i32 (i8*, ...)*)(i8* %7)
  store i32 0, i32* %4, align 4
  br label %9

9:                                                ; preds = %16, %0
  %10 = load i32, i32* %4, align 4
  %11 = icmp slt i32 %10, 800
  br i1 %11, label %12, label %19

12:                                               ; preds = %9
  %13 = load i32, i32* %4, align 4
  %14 = sext i32 %13 to i64
  %15 = getelementptr inbounds [800 x i8], [800 x i8]* %2, i64 0, i64 %14
  store i8 0, i8* %15, align 1
  br label %16

16:                                               ; preds = %12
  %17 = load i32, i32* %4, align 4
  %18 = add nsw i32 %17, 1
  store i32 %18, i32* %4, align 4
  br label %9

19:                                               ; preds = %9
  store i32 0, i32* %4, align 4
  br label %20

20:                                               ; preds = %50, %19
  %21 = load i32, i32* %4, align 4
  %22 = sext i32 %21 to i64
  %23 = getelementptr inbounds [4000 x i8], [4000 x i8]* %1, i64 0, i64 %22
  %24 = load i8, i8* %23, align 1
  %25 = sext i8 %24 to i32
  %26 = icmp ne i32 %25, 0
  br i1 %26, label %27, label %53

27:                                               ; preds = %20
  %28 = load i32, i32* %4, align 4
  %29 = sext i32 %28 to i64
  %30 = getelementptr inbounds [4000 x i8], [4000 x i8]* %1, i64 0, i64 %29
  %31 = load i8, i8* %30, align 1
  %32 = sext i8 %31 to i32
  %33 = icmp ne i32 %32, 32
  br i1 %33, label %34, label %40

34:                                               ; preds = %27
  %35 = load i32, i32* %3, align 4
  %36 = sext i32 %35 to i64
  %37 = getelementptr inbounds [800 x i8], [800 x i8]* %2, i64 0, i64 %36
  %38 = load i8, i8* %37, align 1
  %39 = add i8 %38, 1
  store i8 %39, i8* %37, align 1
  store i32 0, i32* %5, align 4
  br label %49

40:                                               ; preds = %27
  %41 = load i32, i32* %5, align 4
  %42 = add nsw i32 %41, 1
  store i32 %42, i32* %5, align 4
  %43 = load i32, i32* %5, align 4
  %44 = icmp eq i32 %43, 1
  br i1 %44, label %45, label %48

45:                                               ; preds = %40
  %46 = load i32, i32* %3, align 4
  %47 = add nsw i32 %46, 1
  store i32 %47, i32* %3, align 4
  br label %48

48:                                               ; preds = %45, %40
  br label %49

49:                                               ; preds = %48, %34
  br label %50

50:                                               ; preds = %49
  %51 = load i32, i32* %4, align 4
  %52 = add nsw i32 %51, 1
  store i32 %52, i32* %4, align 4
  br label %20

53:                                               ; preds = %20
  store i32 0, i32* %4, align 4
  br label %54

54:                                               ; preds = %71, %53
  %55 = load i32, i32* %4, align 4
  %56 = load i32, i32* %3, align 4
  %57 = icmp sle i32 %55, %56
  br i1 %57, label %58, label %74

58:                                               ; preds = %54
  %59 = load i32, i32* %4, align 4
  %60 = sext i32 %59 to i64
  %61 = getelementptr inbounds [800 x i8], [800 x i8]* %2, i64 0, i64 %60
  %62 = load i8, i8* %61, align 1
  %63 = sext i8 %62 to i32
  %64 = call i32 (i8*, ...) @printf(i8* getelementptr inbounds ([3 x i8], [3 x i8]* @.str, i64 0, i64 0), i32 %63)
  %65 = load i32, i32* %4, align 4
  %66 = load i32, i32* %3, align 4
  %67 = icmp slt i32 %65, %66
  br i1 %67, label %68, label %70

68:                                               ; preds = %58
  %69 = call i32 (i8*, ...) @printf(i8* getelementptr inbounds ([2 x i8], [2 x i8]* @.str.1, i64 0, i64 0))
  br label %70

70:                                               ; preds = %68, %58
  br label %71

71:                                               ; preds = %70
  %72 = load i32, i32* %4, align 4
  %73 = add nsw i32 %72, 1
  store i32 %73, i32* %4, align 4
  br label %54

74:                                               ; preds = %54
  ret void
}

; Function Attrs: argmemonly nounwind willreturn
declare void @llvm.memset.p0i8.i64(i8* nocapture writeonly, i8, i64, i1 immarg) #1

declare dso_local i32 @gets(...) #2

declare dso_local i32 @printf(i8*, ...) #2


!llvm.module.flags = !{!0}
!llvm.ident = !{!1}

!0 = !{i32 1, !"wchar_size", i32 4}
!1 = !{!"clang version 10.0.0-4ubuntu1 "}
